Certificate:
    Data:
        Version: 3 (0x2)
        Serial Number: 8 (0x8)
        Signature Algorithm: sha1WithRSAEncryption
        Issuer: C=CH, ST=Neuchatel, O=Red Hat, OU=jboss, CN=jfcpc/emailAddress=jfclere@redhat.com
        Validity
            Not Before: May  4 07:42:13 2011 GMT
            Not After : May  3 07:42:13 2012 GMT
        Subject: C=CH, ST=Neuchatel, L=Neuchatel, O=Red Hat, OU=jboss, CN=localhost/emailAddress=jfclere@jfclere.org
        Subject Public Key Info:
            Public Key Algorithm: rsaEncryption
                Public-Key: (2048 bit)
                Modulus:
                    00:d9:46:dc:a0:e0:b9:b1:2c:c8:83:55:ec:a4:06:
                    5b:ee:60:0a:c0:6f:28:4b:4d:97:39:06:5c:3d:b0:
                    32:d4:4e:d6:c7:3f:22:54:e2:a7:d9:e2:c7:9c:b9:
                    b9:bd:1d:66:45:53:7e:3b:25:32:76:79:c9:c1:52:
                    91:bb:d3:02:b5:1c:70:a1:a3:e8:75:94:ea:ad:61:
                    36:a7:5e:c8:59:c2:7c:94:f5:17:46:6a:65:cc:c9:
                    2c:09:49:54:ee:73:60:ec:63:ec:92:56:22:60:fc:
                    b5:46:ba:7c:ca:d3:f9:85:e5:7e:20:44:b1:4d:5e:
                    71:4b:84:07:11:23:ce:0c:70:55:14:f6:74:c6:ce:
                    34:18:d0:ae:e9:da:a0:0b:ca:98:0e:19:92:d2:d8:
                    4a:90:9a:62:da:90:5f:7a:d9:f7:ff:14:7b:41:6e:
                    8d:37:cc:a5:45:c2:18:b9:d9:99:0b:3d:ae:3d:fe:
                    9c:6a:25:06:b7:25:41:ad:c3:ac:c7:c7:4f:8c:d1:
                    81:2c:bd:f9:e4:7f:26:d3:5c:84:f4:da:2a:1d:0a:
                    6a:15:1b:e1:e2:c1:c8:ef:b4:4d:92:9d:b3:3c:c9:
                    8f:e0:b3:7e:94:12:c1:24:58:6f:87:38:11:2d:e3:
                    c8:c6:0f:be:50:0c:de:3a:9e:ff:e9:64:51:65:64:
                    6a:db
                Exponent: 65537 (0x10001)
        X509v3 extensions:
            X509v3 Basic Constraints: 
                CA:FALSE
            Netscape Comment: 
                OpenSSL Generated Certificate
            X509v3 Subject Key Identifier: 
                39:CC:FF:65:7D:6D:F3:2D:6F:88:96:8D:ED:9A:A5:5A:BE:FE:EE:E4
            X509v3 Authority Key Identifier: 
                keyid:DC:FF:71:7C:98:2C:10:2F:E3:3E:11:E0:AF:95:AD:DC:9F:22:09:80

    Signature Algorithm: sha1WithRSAEncryption
        ae:f3:48:4c:81:6f:5a:af:76:bb:88:85:f7:a7:5b:2e:14:57:
        31:d5:04:cb:4d:97:88:24:bd:87:e4:24:05:10:6a:2b:4d:bd:
        05:84:d7:f4:0a:3b:de:c7:ba:31:a8:22:c8:82:80:19:5f:f3:
        2b:d5:1e:62:20:c3:87:4b:40:b2:f3:78:b4:ef:b3:7b:00:93:
        9e:75:ea:6e:fd:e3:e2:55:6a:23:31:b9:2a:01:71:5f:a1:f2:
        f3:a5:0c:21:cd:1d:34:e1:b4:a4:47:ac:7b:2f:30:76:a6:85:
        9c:0e:2b:e2:64:67:f7:14:e6:44:27:52:17:93:8d:e1:0a:41:
        29:1c
-----BEGIN CERTIFICATE-----
MIIDezCCAuSgAwIBAgIBCDANBgkqhkiG9w0BAQUFADB2MQswCQYDVQQGEwJDSDES
MBAGA1UECBMJTmV1Y2hhdGVsMRAwDgYDVQQKEwdSZWQgSGF0MQ4wDAYDVQQLEwVq
Ym9zczEOMAwGA1UEAxMFamZjcGMxITAfBgkqhkiG9w0BCQEWEmpmY2xlcmVAcmVk
aGF0LmNvbTAeFw0xMTA1MDQwNzQyMTNaFw0xMjA1MDMwNzQyMTNaMIGPMQswCQYD
VQQGEwJDSDESMBAGA1UECAwJTmV1Y2hhdGVsMRIwEAYDVQQHDAlOZXVjaGF0ZWwx
EDAOBgNVBAoMB1JlZCBIYXQxDjAMBgNVBAsMBWpib3NzMRIwEAYDVQQDDAlsb2Nh
bGhvc3QxIjAgBgkqhkiG9w0BCQEWE2pmY2xlcmVAamZjbGVyZS5vcmcwggEiMA0G
CSqGSIb3DQEBAQUAA4IBDwAwggEKAoIBAQDZRtyg4LmxLMiDVeykBlvuYArAbyhL
TZc5Blw9sDLUTtbHPyJU4qfZ4secubm9HWZFU347JTJ2ecnBUpG70wK1HHCho+h1
lOqtYTanXshZwnyU9RdGamXMySwJSVTuc2DsY+ySViJg/LVGunzK0/mF5X4gRLFN
XnFLhAcRI84McFUU9nTGzjQY0K7p2qALypgOGZLS2EqQmmLakF962ff/FHtBbo03
zKVFwhi52ZkLPa49/pxqJQa3JUGtw6zHx0+M0YEsvfnkfybTXIT02iodCmoVG+Hi
wcjvtE2SnbM8yY/gs36UEsEkWG+HOBEt48jGD75QDN46nv/pZFFlZGrbAgMBAAGj
ezB5MAkGA1UdEwQCMAAwLAYJYIZIAYb4QgENBB8WHU9wZW5TU0wgR2VuZXJhdGVk
IENlcnRpZmljYXRlMB0GA1UdDgQWBBQ5zP9lfW3zLW+Ilo3tmqVavv7u5DAfBgNV
HSMEGDAWgBTc/3F8mCwQL+M+EeCvla3cnyIJgDANBgkqhkiG9w0BAQUFAAOBgQCu
80hMgW9ar3a7iIX3p1suFFcx1QTLTZeIJL2H5CQFEGorTb0FhNf0Cjvex7oxqCLI
goAZX/Mr1R5iIMOHS0Cy83i077N7AJOedepu/ePiVWojMbkqAXFfofLzpQwhzR00
4bSkR6x7LzB2poWcDiviZGf3FOZEJ1IXk43hCkEpHA==
-----END CERTIFICATE-----
